#include <math.h>
#include <stdio.h>
#include <stdlib.h>
#include <string.h>

int main(){
	int n,i,j,x,pd;
	char s[260]={0};
	char *ps=s;
	scanf("%d",&n);
	for(i=0;i<n;i++){
		scanf("%s",s);
		x=strlen(s);
		for(j=0;j<x;j++){
			pd=0;
			if((pd==0)&&(s[j]=='A')){
				*(ps+j)='T';
				pd=1;
			}
			if((pd==0)&&(s[j]=='T')){
				s[j]='A';
				pd=1;
			}
			if((pd==0)&&(s[j]=='C')){
				s[j]='G';
				pd=1;
			}
			if((pd==0)&&(s[j]=='G')){
				s[j]='C';
				pd=1;
			}
		}
		if(i==0){
			printf("%s",s);
		}
		else {
			printf("\n%s",s);
		}
	}



	
	
		return 0;
	}

				
	
